target datalayout = "e-m:e-p270:32:32-p271:32:32-p272:64:64-i64:64-i128:128-f80:128-n8:16:32:64-S128"
target triple = "x86_64-pc-linux-gnu"

%"struct.OpenImageIO::v3_1_0::TypeDesc" = type { i8, i8, i8, i8, i32 }
%"class.OpenImageIO::v3_1_0::ImageSpec" = type { i32, i32, i32, i32, i32, i32, i32, i32, i32, i32, i32, i32, i32, i32, i32, i32, %"struct.OpenImageIO::v3_1_0::TypeDesc", %"class.std::vector", %"class.std::vector.0", i32, i32, i8, %"class.OpenImageIO::v3_1_0::ParamValueList" }
%"class.std::vector" = type { %"struct.std::_Vector_base" }
%"struct.std::_Vector_base" = type { %"struct.std::_Vector_base<OpenImageIO::v3_1_0::TypeDesc, std::allocator<OpenImageIO::v3_1_0::TypeDesc>>::_Vector_impl" }
%"struct.std::_Vector_base<OpenImageIO::v3_1_0::TypeDesc, std::allocator<OpenImageIO::v3_1_0::TypeDesc>>::_Vector_impl" = type { %"struct.std::_Vector_base<OpenImageIO::v3_1_0::TypeDesc, std::allocator<OpenImageIO::v3_1_0::TypeDesc>>::_Vector_impl_data" }
%"struct.std::_Vector_base<OpenImageIO::v3_1_0::TypeDesc, std::allocator<OpenImageIO::v3_1_0::TypeDesc>>::_Vector_impl_data" = type { ptr, ptr, ptr }
%"class.std::vector.0" = type { %"struct.std::_Vector_base.1" }
%"struct.std::_Vector_base.1" = type { %"struct.std::_Vector_base<std::__cxx11::basic_string<char>, std::allocator<std::__cxx11::basic_string<char>>>::_Vector_impl" }
%"struct.std::_Vector_base<std::__cxx11::basic_string<char>, std::allocator<std::__cxx11::basic_string<char>>>::_Vector_impl" = type { %"struct.std::_Vector_base<std::__cxx11::basic_string<char>, std::allocator<std::__cxx11::basic_string<char>>>::_Vector_impl_data" }
%"struct.std::_Vector_base<std::__cxx11::basic_string<char>, std::allocator<std::__cxx11::basic_string<char>>>::_Vector_impl_data" = type { ptr, ptr, ptr }
%"class.OpenImageIO::v3_1_0::ParamValueList" = type { %"class.std::vector.5" }
%"class.std::vector.5" = type { %"struct.std::_Vector_base.6" }
%"struct.std::_Vector_base.6" = type { %"struct.std::_Vector_base<OpenImageIO::v3_1_0::ParamValue, std::allocator<OpenImageIO::v3_1_0::ParamValue>>::_Vector_impl" }
%"struct.std::_Vector_base<OpenImageIO::v3_1_0::ParamValue, std::allocator<OpenImageIO::v3_1_0::ParamValue>>::_Vector_impl" = type { %"struct.std::_Vector_base<OpenImageIO::v3_1_0::ParamValue, std::allocator<OpenImageIO::v3_1_0::ParamValue>>::_Vector_impl_data" }
%"struct.std::_Vector_base<OpenImageIO::v3_1_0::ParamValue, std::allocator<OpenImageIO::v3_1_0::ParamValue>>::_Vector_impl_data" = type { ptr, ptr, ptr }
%"class.std::__cxx11::basic_string" = type { %"struct.std::__cxx11::basic_string<char>::_Alloc_hider", i64, %union.anon.15 }
%"struct.std::__cxx11::basic_string<char>::_Alloc_hider" = type { ptr }
%union.anon.15 = type { i64, [8 x i8] }
%"class.OpenImageIO::v3_1_0::ZfileOutput" = type { %"class.OpenImageIO::v3_1_0::ImageOutput", %"class.std::__cxx11::basic_string", ptr, ptr, %"class.std::vector.24", %"class.std::vector.24" }
%"class.OpenImageIO::v3_1_0::ImageOutput" = type { ptr, %"class.OpenImageIO::v3_1_0::ImageSpec", %"class.std::unique_ptr.16" }
%"class.std::unique_ptr.16" = type { %"struct.std::__uniq_ptr_data.17" }
%"struct.std::__uniq_ptr_data.17" = type { %"class.std::__uniq_ptr_impl.18" }
%"class.std::__uniq_ptr_impl.18" = type { %"class.std::tuple.19" }
%"class.std::tuple.19" = type { %"struct.std::_Tuple_impl.20" }
%"struct.std::_Tuple_impl.20" = type { %"struct.std::_Tuple_impl.21", %"struct.std::_Head_base.23" }
%"struct.std::_Tuple_impl.21" = type { %"struct.std::_Head_base.22" }
%"struct.std::_Head_base.22" = type { ptr }
%"struct.std::_Head_base.23" = type { ptr }
%"class.std::vector.24" = type { %"struct.std::_Vector_base.25" }
%"struct.std::_Vector_base.25" = type { %"struct.std::_Vector_base<unsigned char, std::allocator<unsigned char>>::_Vector_impl" }
%"struct.std::_Vector_base<unsigned char, std::allocator<unsigned char>>::_Vector_impl" = type { %"struct.std::_Vector_base<unsigned char, std::allocator<unsigned char>>::_Vector_impl_data" }
%"struct.std::_Vector_base<unsigned char, std::allocator<unsigned char>>::_Vector_impl_data" = type { ptr, ptr, ptr }

@.str.11 = private unnamed_addr constant [14 x i8] c"File not open\00", align 1
@stderr = external global ptr, align 8
@.str.12 = private unnamed_addr constant [35 x i8] c"%s:%u: %s: Assertion '%s' failed.\0A\00", align 1
@.str.13 = private unnamed_addr constant [122 x i8] c"generated/home/dtcxzyw/WorkSpace/Projects/compilers/llvm-opt-benchmark/bench/oiio/OpenImageIO/src/zfile.imageio/zfile.cpp\00", align 1
@__FUNCTION__._ZN11OpenImageIO6v3_1_011ZfileOutput10write_tileEiiiNS0_8TypeDescEPKvlll = private unnamed_addr constant [11 x i8] c"write_tile\00", align 1
@.str.14 = private unnamed_addr constant [20 x i8] c"m_tilebuffer.data()\00", align 1

; Function Attrs: mustprogress nounwind uwtable
define linkonce_odr noundef ptr @_ZNKSt6vectorIhSaIhEE11_M_data_ptrIhEEPT_S4_(ptr noundef nonnull align 8 dereferenceable(24) %0, ptr noundef %1) #6 comdat align 2 {
  %3 = alloca ptr, align 8
  %4 = alloca ptr, align 8
  store ptr %0, ptr %3, align 8, !tbaa !161
  store ptr %1, ptr %4, align 8, !tbaa !27
  %5 = load ptr, ptr %4, align 8, !tbaa !27
  ret ptr %5
}

; Function Attrs: mustprogress nounwind uwtable
define linkonce_odr void @_ZN11OpenImageIO6v3_1_08TypeDescC2ENS1_8BASETYPEENS1_9AGGREGATEENS1_12VECSEMANTICSEi(ptr noundef nonnull align 4 dereferenceable(8) %0, i32 noundef %1, i32 noundef %2, i32 noundef %3, i32 noundef %4) unnamed_addr #6 comdat align 2 {
  %6 = alloca ptr, align 8
  %7 = alloca i32, align 4
  %8 = alloca i32, align 4
  %9 = alloca i32, align 4
  %10 = alloca i32, align 4
  store ptr %0, ptr %6, align 8, !tbaa !84
  store i32 %1, ptr %7, align 4, !tbaa !85
  store i32 %2, ptr %8, align 4, !tbaa !87
  store i32 %3, ptr %9, align 4, !tbaa !89
  store i32 %4, ptr %10, align 4, !tbaa !71
  %11 = load ptr, ptr %6, align 8
  %12 = getelementptr inbounds nuw %"struct.OpenImageIO::v3_1_0::TypeDesc", ptr %11, i32 0, i32 0
  %13 = load i32, ptr %7, align 4, !tbaa !85
  %14 = trunc i32 %13 to i8
  store i8 %14, ptr %12, align 4, !tbaa !91
  %15 = getelementptr inbounds nuw %"struct.OpenImageIO::v3_1_0::TypeDesc", ptr %11, i32 0, i32 1
  %16 = load i32, ptr %8, align 4, !tbaa !87
  %17 = trunc i32 %16 to i8
  store i8 %17, ptr %15, align 1, !tbaa !92
  %18 = getelementptr inbounds nuw %"struct.OpenImageIO::v3_1_0::TypeDesc", ptr %11, i32 0, i32 2
  %19 = load i32, ptr %9, align 4, !tbaa !89
  %20 = trunc i32 %19 to i8
  store i8 %20, ptr %18, align 2, !tbaa !93
  %21 = getelementptr inbounds nuw %"struct.OpenImageIO::v3_1_0::TypeDesc", ptr %11, i32 0, i32 3
  store i8 0, ptr %21, align 1, !tbaa !94
  %22 = getelementptr inbounds nuw %"struct.OpenImageIO::v3_1_0::TypeDesc", ptr %11, i32 0, i32 4
  %23 = load i32, ptr %10, align 4, !tbaa !71
  store i32 %23, ptr %22, align 4, !tbaa !95
  ret void
}

; Function Attrs: mustprogress nounwind uwtable
define linkonce_odr noundef ptr @_ZNSt6vectorIhSaIhEE4dataEv(ptr noundef nonnull align 8 dereferenceable(24) %0) #6 comdat align 2 {
  %2 = alloca ptr, align 8
  store ptr %0, ptr %2, align 8, !tbaa !161
  %3 = load ptr, ptr %2, align 8
  %4 = getelementptr inbounds nuw %"struct.std::_Vector_base.25", ptr %3, i32 0, i32 0
  %5 = getelementptr inbounds nuw %"struct.std::_Vector_base<unsigned char, std::allocator<unsigned char>>::_Vector_impl_data", ptr %4, i32 0, i32 0
  %6 = load ptr, ptr %5, align 8, !tbaa !163
  %7 = call noundef ptr @_ZNKSt6vectorIhSaIhEE11_M_data_ptrIhEEPT_S4_(ptr noundef nonnull align 8 dereferenceable(24) %3, ptr noundef %6) #5
  ret ptr %7
}

; Function Attrs: mustprogress nounwind uwtable
define linkonce_odr hidden noundef zeroext i1 @_ZNK11OpenImageIO6v3_1_011ZfileOutput6openedEv(ptr noundef nonnull align 8 dereferenceable(280) %0) #6 comdat align 2 {
  %2 = alloca ptr, align 8
  store ptr %0, ptr %2, align 8, !tbaa !12
  %3 = load ptr, ptr %2, align 8
  %4 = getelementptr inbounds nuw %"class.OpenImageIO::v3_1_0::ZfileOutput", ptr %3, i32 0, i32 2
  %5 = load ptr, ptr %4, align 8, !tbaa !137
  %6 = icmp ne ptr %5, null
  br i1 %6, label %11, label %7

7:                                                ; preds = %1
  %8 = getelementptr inbounds nuw %"class.OpenImageIO::v3_1_0::ZfileOutput", ptr %3, i32 0, i32 3
  %9 = load ptr, ptr %8, align 8, !tbaa !120
  %10 = icmp ne ptr %9, null
  br label %11

11:                                               ; preds = %7, %1
  %12 = phi i1 [ true, %1 ], [ %10, %7 ]
  ret i1 %12
}

; Function Attrs: mustprogress uwtable
define hidden noundef zeroext i1 @_ZN11OpenImageIO6v3_1_011ZfileOutput10write_tileEiiiNS0_8TypeDescEPKvlll(ptr noundef nonnull align 8 dereferenceable(280) %0, i32 noundef %1, i32 noundef %2, i32 noundef %3, i64 %4, ptr noundef %5, i64 noundef %6, i64 noundef %7, i64 noundef %8) unnamed_addr #7 align 2 {
  %10 = alloca i1, align 1
  %11 = alloca %"struct.OpenImageIO::v3_1_0::TypeDesc", align 4
  %12 = alloca ptr, align 8
  %13 = alloca i32, align 4
  %14 = alloca i32, align 4
  %15 = alloca i32, align 4
  %16 = alloca ptr, align 8
  %17 = alloca i64, align 8
  %18 = alloca i64, align 8
  %19 = alloca i64, align 8
  %20 = alloca %"struct.OpenImageIO::v3_1_0::TypeDesc", align 4
  %21 = alloca %"struct.OpenImageIO::v3_1_0::TypeDesc", align 4
  store i64 %4, ptr %11, align 4
  store ptr %0, ptr %12, align 8, !tbaa !12
  store i32 %1, ptr %13, align 4, !tbaa !71
  store i32 %2, ptr %14, align 4, !tbaa !71
  store i32 %3, ptr %15, align 4, !tbaa !71
  store ptr %5, ptr %16, align 8, !tbaa !111
  store i64 %6, ptr %17, align 8, !tbaa !100
  store i64 %7, ptr %18, align 8, !tbaa !100
  store i64 %8, ptr %19, align 8, !tbaa !100
  %22 = load ptr, ptr %12, align 8
  %23 = call noundef zeroext i1 @_ZNK11OpenImageIO6v3_1_011ZfileOutput6openedEv(ptr noundef nonnull align 8 dereferenceable(280) %22)
  br i1 %23, label %25, label %24

24:                                               ; preds = %9
  call void @_ZNK11OpenImageIO6v3_1_011ImageOutput8errorfmtIJEEEvPKcDpRKT_(ptr noundef nonnull align 8 dereferenceable(184) %22, ptr noundef @.str.11)
  store i1 false, ptr %10, align 1
  br label %49

25:                                               ; preds = %9
  %26 = getelementptr inbounds nuw %"class.OpenImageIO::v3_1_0::ZfileOutput", ptr %22, i32 0, i32 5
  %27 = call noundef ptr @_ZNSt6vectorIhSaIhEE4dataEv(ptr noundef nonnull align 8 dereferenceable(24) %26) #5
  %28 = icmp ne ptr %27, null
  %29 = zext i1 %28 to i64
  %30 = call i64 @llvm.expect.i64(i64 %29, i64 1)
  %31 = icmp ne i64 %30, 0
  br i1 %31, label %32, label %33

32:                                               ; preds = %25
  br label %36

33:                                               ; preds = %25
  %34 = load ptr, ptr @stderr, align 8, !tbaa !168
  %35 = call i32 (ptr, ptr, ...) @fprintf(ptr noundef %34, ptr noundef @.str.12, ptr noundef @.str.13, i32 noundef 394, ptr noundef @__FUNCTION__._ZN11OpenImageIO6v3_1_011ZfileOutput10write_tileEiiiNS0_8TypeDescEPKvlll, ptr noundef @.str.14) #5
  br label %36

36:                                               ; preds = %33, %32
  %37 = load i32, ptr %13, align 4, !tbaa !71
  %38 = load i32, ptr %14, align 4, !tbaa !71
  %39 = load i32, ptr %15, align 4, !tbaa !71
  call void @llvm.memcpy.p0.p0.i64(ptr align 4 %20, ptr align 4 %11, i64 8, i1 false), !tbaa.struct !69
  %40 = load ptr, ptr %16, align 8, !tbaa !111
  %41 = load i64, ptr %17, align 8, !tbaa !100
  %42 = load i64, ptr %18, align 8, !tbaa !100
  %43 = load i64, ptr %19, align 8, !tbaa !100
  %44 = getelementptr inbounds nuw %"class.OpenImageIO::v3_1_0::ZfileOutput", ptr %22, i32 0, i32 5
  %45 = call noundef ptr @_ZNSt6vectorIhSaIhEE4dataEv(ptr noundef nonnull align 8 dereferenceable(24) %44) #5
  call void @_ZN11OpenImageIO6v3_1_08TypeDescC2ENS1_8BASETYPEENS1_9AGGREGATEENS1_12VECSEMANTICSEi(ptr noundef nonnull align 4 dereferenceable(8) %21, i32 noundef 0, i32 noundef 1, i32 noundef 0, i32 noundef 0) #5
  %46 = load i64, ptr %20, align 4
  %47 = load i64, ptr %21, align 4
  %48 = call noundef zeroext i1 @_ZN11OpenImageIO6v3_1_011ImageOutput25copy_tile_to_image_bufferEiiiNS0_8TypeDescEPKvlllPvS2_(ptr noundef nonnull align 8 dereferenceable(184) %22, i32 noundef %37, i32 noundef %38, i32 noundef %39, i64 %46, ptr noundef %40, i64 noundef %41, i64 noundef %42, i64 noundef %43, ptr noundef %45, i64 %47)
  store i1 %48, ptr %10, align 1
  br label %49

49:                                               ; preds = %36, %24
  %50 = load i1, ptr %10, align 1
  ret i1 %50
}