; Function Attrs: mustprogress uwtable
define hidden noundef zeroext i1 @_ZN11OpenImageIO6v3_1_011ZfileOutput10write_tileEiiiNS0_8TypeDescEPKvlll(ptr noundef nonnull align 8 dereferenceable(280) %0, i32 noundef %1, i32 noundef %2, i32 noundef %3, i64 %4, ptr noundef %5, i64 noundef %6, i64 noundef %7, i64 noundef %8) unnamed_addr #6 align 2 {
  %10 = getelementptr inbounds nuw i8, ptr %0, i64 216
  %11 = load ptr, ptr %10, align 8, !tbaa !119
  %.not.i = icmp ne ptr %11, null
  %12 = getelementptr inbounds nuw i8, ptr %0, i64 224
  %13 = load ptr, ptr %12, align 8
  %14 = icmp ne ptr %13, null
  %15 = select i1 %.not.i, i1 true, i1 %14
  br i1 %15, label %17, label %16

16:                                               ; preds = %9
  tail call void @_ZNK11OpenImageIO6v3_1_011ImageOutput8errorfmtIJEEEvPKcDpRKT_(ptr noundef nonnull align 8 dereferenceable(184) %0, ptr noundef nonnull @.str.11)
  br label %26

17:                                               ; preds = %9
  %18 = getelementptr inbounds nuw i8, ptr %0, i64 256
  %19 = load ptr, ptr %18, align 8, !tbaa !122
  %.not = icmp eq ptr %19, null
  br i1 %.not, label %20, label %23, !prof !71

20:                                               ; preds = %17
  %21 = load ptr, ptr @stderr, align 8, !tbaa !140
  %22 = tail call i32 (ptr, ptr, ...) @fprintf(ptr noundef %21, ptr noundef nonnull @.str.12, ptr noundef nonnull @.str.13, i32 noundef 394, ptr noundef nonnull @__FUNCTION__._ZN11OpenImageIO6v3_1_011ZfileOutput10write_tileEiiiNS0_8TypeDescEPKvlll, ptr noundef nonnull @.str.14) #30
  %.pre = load ptr, ptr %18, align 8, !tbaa !122
  br label %23

23:                                               ; preds = %17, %20
  %24 = phi ptr [ %19, %17 ], [ %.pre, %20 ]
  %25 = tail call noundef zeroext i1 @_ZN11OpenImageIO6v3_1_011ImageOutput25copy_tile_to_image_bufferEiiiNS0_8TypeDescEPKvlllPvS2_(ptr noundef nonnull align 8 dereferenceable(184) %0, i32 noundef %1, i32 noundef %2, i32 noundef %3, i64 %4, ptr noundef %5, i64 noundef %6, i64 noundef %7, i64 noundef %8, ptr noundef %24, i64 256)
  br label %26

26:                                               ; preds = %23, %16
  %.0 = phi i1 [ %25, %23 ], [ false, %16 ]
  ret i1 %.0
}